(dp0
Vengine
p1
S'pdflatex'
p2
sVpackages
p3
c__builtin__
set
p4
((lp5
Venumitem
p6
aVverbatim
p7
aVbooktabs
p8
aVamsmath
p9
aVlistings
p10
aVunicode-math
p11
aVframed
p12
aVnewtxmath
p13
aVupquote
p14
aValltt
p15
aVtabularx
p16
aVlsp-gb4e
p17
aVxtab
p18
aVarray
p19
atp20
Rp21
sVfiles_with_guttermarks
p22
g4
((lp23
V/usr/local/texlive/2015/texmf-dist/tex/latex/fontspec/fontspec.sty
p24
aS'unicode.tex'
p25
atp26
Rp27
sVsynctex
p28
I01
s.